	.file	"account.c"
	.text
	.globl	createAccount
	.type	createAccount, @function
createAccount:
.LFB5:
	.cfi_startproc
	pushq	%rbp
	.cfi_def_cfa_offset 16
	.cfi_offset 6, -16
	movq	%rsp, %rbp
	.cfi_def_cfa_register 6
	subq	$32, %rsp
	movl	%edi, -20(%rbp)
	movl	$48, %edi
	call	malloc@PLT
	movq	%rax, -8(%rbp)
	movq	-8(%rbp), %rax
	movl	-20(%rbp), %edx
	movl	%edx, (%rax)
	movq	-8(%rbp), %rax
	addq	$8, %rax
	movl	$0, %esi
	movq	%rax, %rdi
	call	pthread_mutex_init@PLT
	movq	-8(%rbp), %rax
	leave
	.cfi_def_cfa 7, 8
	ret
	.cfi_endproc
.LFE5:
	.size	createAccount, .-createAccount
	.globl	getBalance
	.type	getBalance, @function
getBalance:
.LFB6:
	.cfi_startproc
	pushq	%rbp
	.cfi_def_cfa_offset 16
	.cfi_offset 6, -16
	movq	%rsp, %rbp
	.cfi_def_cfa_register 6
	movq	%rdi, -8(%rbp)
	movq	-8(%rbp), %rax
	movl	(%rax), %eax
	popq	%rbp
	.cfi_def_cfa 7, 8
	ret
	.cfi_endproc
.LFE6:
	.size	getBalance, .-getBalance
	.globl	deposit
	.type	deposit, @function
deposit:
.LFB7:
	.cfi_startproc
	pushq	%rbp
	.cfi_def_cfa_offset 16
	.cfi_offset 6, -16
	movq	%rsp, %rbp
	.cfi_def_cfa_register 6
	subq	$16, %rsp
	movq	%rdi, -8(%rbp)
	movl	%esi, -12(%rbp)
	movq	-8(%rbp), %rax
	addq	$8, %rax
	movq	%rax, %rdi
	call	pthread_mutex_lock@PLT
	movq	-8(%rbp), %rax
	movl	(%rax), %edx
	movl	-12(%rbp), %eax
	addl	%eax, %edx
	movq	-8(%rbp), %rax
	movl	%edx, (%rax)
	movq	-8(%rbp), %rax
	addq	$8, %rax
	movq	%rax, %rdi
	call	pthread_mutex_unlock@PLT
	nop
	leave
	.cfi_def_cfa 7, 8
	ret
	.cfi_endproc
.LFE7:
	.size	deposit, .-deposit
	.globl	withdraw
	.type	withdraw, @function
withdraw:
.LFB8:
	.cfi_startproc
	pushq	%rbp
	.cfi_def_cfa_offset 16
	.cfi_offset 6, -16
	movq	%rsp, %rbp
	.cfi_def_cfa_register 6
	subq	$16, %rsp
	movq	%rdi, -8(%rbp)
	movl	%esi, -12(%rbp)
	movq	-8(%rbp), %rax
	addq	$8, %rax
	movq	%rax, %rdi
	call	pthread_mutex_lock@PLT
	movq	-8(%rbp), %rax
	movl	(%rax), %eax
	subl	-12(%rbp), %eax
	movl	%eax, %edx
	movq	-8(%rbp), %rax
	movl	%edx, (%rax)
	movq	-8(%rbp), %rax
	addq	$8, %rax
	movq	%rax, %rdi
	call	pthread_mutex_unlock@PLT
	movl	-12(%rbp), %eax
	leave
	.cfi_def_cfa 7, 8
	ret
	.cfi_endproc
.LFE8:
	.size	withdraw, .-withdraw
	.globl	destroyAccount
	.type	destroyAccount, @function
destroyAccount:
.LFB9:
	.cfi_startproc
	pushq	%rbp
	.cfi_def_cfa_offset 16
	.cfi_offset 6, -16
	movq	%rsp, %rbp
	.cfi_def_cfa_register 6
	subq	$16, %rsp
	movq	%rdi, -8(%rbp)
	movq	-8(%rbp), %rax
	addq	$8, %rax
	movq	%rax, %rdi
	call	pthread_mutex_destroy@PLT
	movq	-8(%rbp), %rax
	movq	%rax, %rdi
	call	free@PLT
	nop
	leave
	.cfi_def_cfa 7, 8
	ret
	.cfi_endproc
.LFE9:
	.size	destroyAccount, .-destroyAccount
	.ident	"GCC: (Ubuntu 7.3.0-27ubuntu1~18.04) 7.3.0"
	.section	.note.GNU-stack,"",@progbits
